; Function Attrs: nounwind sspstrong uwtable
define dso_local void @rb_gvar_var_marker(ptr noundef readonly captures(address_is_null) %0) #0 {
  %.not = icmp eq ptr %0, null
  br i1 %.not, label %4, label %2

2:                                                ; preds = %1
  %3 = load i64, ptr %0, align 8, !tbaa !14
  tail call void @rb_gc_mark_maybe(i64 noundef %3) #27
  br label %4

4:                                                ; preds = %2, %1
  ret void
}